target datalayout = "e-m:e-p270:32:32-p271:32:32-p272:64:64-i64:64-i128:128-f80:128-n8:16:32:64-S128"
target triple = "x86_64-pc-linux-gnu"

%struct.rpc_state = type { ptr, ptr, ptr, ptr, ptr, ptr, ptr, i64, i64, i64, i32, i32, i32, i8 }

@.str.88 = private unnamed_addr constant [42 x i8] c"shouldn't have EOF when not gentle on EOF\00", align 1
@.str.89 = private unnamed_addr constant [5 x i8] c"0001\00", align 1
@.str.90 = private unnamed_addr constant [5 x i8] c"0000\00", align 1
@.str.91 = private unnamed_addr constant [50 x i8] c"remote server sent unexpected response end packet\00", align 1

; Function Attrs: nounwind uwtable
define internal i32 @rpc_read_from_out(ptr noundef %0, i32 noundef %1, ptr noundef %2, ptr noundef %3) #0 {
  %5 = alloca i32, align 4
  %6 = alloca ptr, align 8
  %7 = alloca i32, align 4
  %8 = alloca ptr, align 8
  %9 = alloca ptr, align 8
  %10 = alloca i64, align 8
  %11 = alloca ptr, align 8
  %12 = alloca i32, align 4
  %13 = alloca i32, align 4
  store ptr %0, ptr %6, align 8, !tbaa !116
  store i32 %1, ptr %7, align 4, !tbaa !4
  store ptr %2, ptr %8, align 8, !tbaa !151
  store ptr %3, ptr %9, align 8, !tbaa !153
  call void @llvm.lifetime.start.p0(i64 8, ptr %10) #10
  call void @llvm.lifetime.start.p0(i64 8, ptr %11) #10
  call void @llvm.lifetime.start.p0(i64 4, ptr %12) #10
  %14 = load ptr, ptr %6, align 8, !tbaa !116
  %15 = getelementptr inbounds nuw %struct.rpc_state, ptr %14, i32 0, i32 13
  %16 = load i8, ptr %15, align 4
  %17 = lshr i8 %16, 2
  %18 = and i8 %17, 1
  %19 = zext i8 %18 to i32
  %20 = icmp ne i32 %19, 0
  br i1 %20, label %21, label %38

21:                                               ; preds = %4
  %22 = load ptr, ptr %6, align 8, !tbaa !116
  %23 = getelementptr inbounds nuw %struct.rpc_state, ptr %22, i32 0, i32 7
  %24 = load i64, ptr %23, align 8, !tbaa !69
  %25 = load ptr, ptr %6, align 8, !tbaa !116
  %26 = getelementptr inbounds nuw %struct.rpc_state, ptr %25, i32 0, i32 8
  %27 = load i64, ptr %26, align 8, !tbaa !70
  %28 = sub i64 %24, %27
  %29 = sub i64 %28, 4
  store i64 %29, ptr %10, align 8, !tbaa !33
  %30 = load ptr, ptr %6, align 8, !tbaa !116
  %31 = getelementptr inbounds nuw %struct.rpc_state, ptr %30, i32 0, i32 6
  %32 = load ptr, ptr %31, align 8, !tbaa !68
  %33 = load ptr, ptr %6, align 8, !tbaa !116
  %34 = getelementptr inbounds nuw %struct.rpc_state, ptr %33, i32 0, i32 8
  %35 = load i64, ptr %34, align 8, !tbaa !70
  %36 = getelementptr inbounds nuw i8, ptr %32, i64 %35
  %37 = getelementptr inbounds i8, ptr %36, i64 4
  store ptr %37, ptr %11, align 8, !tbaa !18
  br label %53

38:                                               ; preds = %4
  %39 = load ptr, ptr %6, align 8, !tbaa !116
  %40 = getelementptr inbounds nuw %struct.rpc_state, ptr %39, i32 0, i32 7
  %41 = load i64, ptr %40, align 8, !tbaa !69
  %42 = load ptr, ptr %6, align 8, !tbaa !116
  %43 = getelementptr inbounds nuw %struct.rpc_state, ptr %42, i32 0, i32 8
  %44 = load i64, ptr %43, align 8, !tbaa !70
  %45 = sub i64 %41, %44
  store i64 %45, ptr %10, align 8, !tbaa !33
  %46 = load ptr, ptr %6, align 8, !tbaa !116
  %47 = getelementptr inbounds nuw %struct.rpc_state, ptr %46, i32 0, i32 6
  %48 = load ptr, ptr %47, align 8, !tbaa !68
  %49 = load ptr, ptr %6, align 8, !tbaa !116
  %50 = getelementptr inbounds nuw %struct.rpc_state, ptr %49, i32 0, i32 8
  %51 = load i64, ptr %50, align 8, !tbaa !70
  %52 = getelementptr inbounds nuw i8, ptr %48, i64 %51
  store ptr %52, ptr %11, align 8, !tbaa !18
  br label %53

53:                                               ; preds = %38, %21
  %54 = load i64, ptr %10, align 8, !tbaa !33
  %55 = icmp ult i64 %54, 65520
  br i1 %55, label %56, label %57

56:                                               ; preds = %53
  store i32 0, ptr %5, align 4
  store i32 1, ptr %13, align 4
  br label %123

57:                                               ; preds = %53
  %58 = load ptr, ptr %6, align 8, !tbaa !116
  %59 = getelementptr inbounds nuw %struct.rpc_state, ptr %58, i32 0, i32 11
  %60 = load i32, ptr %59, align 4, !tbaa !73
  %61 = load ptr, ptr %11, align 8, !tbaa !18
  %62 = load i64, ptr %10, align 8, !tbaa !33
  %63 = trunc i64 %62 to i32
  %64 = load i32, ptr %7, align 4, !tbaa !4
  %65 = call i32 @packet_read_with_status(i32 noundef %60, ptr noundef null, ptr noundef null, ptr noundef %61, i32 noundef %63, ptr noundef %12, i32 noundef %64)
  %66 = load ptr, ptr %9, align 8, !tbaa !153
  store i32 %65, ptr %66, align 4, !tbaa !4
  %67 = load ptr, ptr %9, align 8, !tbaa !153
  %68 = load i32, ptr %67, align 4, !tbaa !4
  %69 = icmp ne i32 %68, 0
  br i1 %69, label %70, label %89

70:                                               ; preds = %57
  %71 = load i32, ptr %12, align 4, !tbaa !4
  %72 = load ptr, ptr %6, align 8, !tbaa !116
  %73 = getelementptr inbounds nuw %struct.rpc_state, ptr %72, i32 0, i32 13
  %74 = load i8, ptr %73, align 4
  %75 = lshr i8 %74, 2
  %76 = and i8 %75, 1
  %77 = zext i8 %76 to i32
  %78 = icmp ne i32 %77, 0
  %79 = select i1 %78, i32 4, i32 0
  %80 = add nsw i32 %71, %79
  %81 = sext i32 %80 to i64
  %82 = load ptr, ptr %8, align 8, !tbaa !151
  store i64 %81, ptr %82, align 8, !tbaa !33
  %83 = load ptr, ptr %8, align 8, !tbaa !151
  %84 = load i64, ptr %83, align 8, !tbaa !33
  %85 = load ptr, ptr %6, align 8, !tbaa !116
  %86 = getelementptr inbounds nuw %struct.rpc_state, ptr %85, i32 0, i32 8
  %87 = load i64, ptr %86, align 8, !tbaa !70
  %88 = add i64 %87, %84
  store i64 %88, ptr %86, align 8, !tbaa !70
  br label %89

89:                                               ; preds = %70, %57
  %90 = load ptr, ptr %6, align 8, !tbaa !116
  %91 = getelementptr inbounds nuw %struct.rpc_state, ptr %90, i32 0, i32 13
  %92 = load i8, ptr %91, align 4
  %93 = lshr i8 %92, 2
  %94 = and i8 %93, 1
  %95 = zext i8 %94 to i32
  %96 = icmp ne i32 %95, 0
  br i1 %96, label %97, label %122

97:                                               ; preds = %89
  %98 = load ptr, ptr %9, align 8, !tbaa !153
  %99 = load i32, ptr %98, align 4, !tbaa !4
  switch i32 %99, label %121 [
    i32 0, label %100
    i32 1, label %107
    i32 3, label %113
    i32 2, label %116
    i32 4, label %119
  ]

100:                                              ; preds = %97
  %101 = load i32, ptr %7, align 4, !tbaa !4
  %102 = and i32 %101, 1
  %103 = icmp ne i32 %102, 0
  br i1 %103, label %106, label %104

104:                                              ; preds = %100
  %105 = call ptr @_(ptr noundef @.str.88)
  call void (ptr, ...) @die(ptr noundef %105) #11
  unreachable

106:                                              ; preds = %100
  br label %121

107:                                              ; preds = %97
  %108 = load ptr, ptr %11, align 8, !tbaa !18
  %109 = getelementptr inbounds i8, ptr %108, i64 -4
  %110 = load ptr, ptr %8, align 8, !tbaa !151
  %111 = load i64, ptr %110, align 8, !tbaa !33
  %112 = trunc i64 %111 to i32
  call void @set_packet_header(ptr noundef %109, i32 noundef %112)
  br label %121

113:                                              ; preds = %97
  %114 = load ptr, ptr %11, align 8, !tbaa !18
  %115 = getelementptr inbounds i8, ptr %114, i64 -4
  call void @llvm.memcpy.p0.p0.i64(ptr align 1 %115, ptr align 1 @.str.89, i64 4, i1 false)
  br label %121

116:                                              ; preds = %97
  %117 = load ptr, ptr %11, align 8, !tbaa !18
  %118 = getelementptr inbounds i8, ptr %117, i64 -4
  call void @llvm.memcpy.p0.p0.i64(ptr align 1 %118, ptr align 1 @.str.90, i64 4, i1 false)
  br label %121

119:                                              ; preds = %97
  %120 = call ptr @_(ptr noundef @.str.91)
  call void (ptr, ...) @die(ptr noundef %120) #11
  unreachable

121:                                              ; preds = %97, %116, %113, %107, %106
  br label %122

122:                                              ; preds = %121, %89
  store i32 1, ptr %5, align 4
  store i32 1, ptr %13, align 4
  br label %123

123:                                              ; preds = %122, %56
  call void @llvm.lifetime.end.p0(i64 4, ptr %12) #10
  call void @llvm.lifetime.end.p0(i64 8, ptr %11) #10
  call void @llvm.lifetime.end.p0(i64 8, ptr %10) #10
  %124 = load i32, ptr %5, align 4
  ret i32 %124
}