; Function Attrs: nounwind uwtable
define internal fastcc range(i32 0, 2) i32 @rpc_read_from_out(ptr noundef captures(none) %0, i32 noundef range(i32 0, 2) %1, ptr noundef nonnull captures(none) %2, ptr noundef nonnull writeonly captures(none) %3) unnamed_addr #0 {
  %5 = alloca i32, align 4
  call void @llvm.lifetime.start.p0(i64 4, ptr nonnull %5) #17
  %6 = getelementptr inbounds nuw i8, ptr %0, i64 92
  %7 = load i8, ptr %6, align 4
  %8 = and i8 %7, 4
  %.not = icmp eq i8 %8, 0
  %9 = getelementptr inbounds nuw i8, ptr %0, i64 56
  %10 = load i64, ptr %9, align 8, !tbaa !89
  %11 = getelementptr inbounds nuw i8, ptr %0, i64 64
  %12 = load i64, ptr %11, align 8, !tbaa !95
  br i1 %.not, label %19, label %13

13:                                               ; preds = %4
  %14 = add i64 %10, -4
  %15 = getelementptr inbounds nuw i8, ptr %0, i64 48
  %16 = load ptr, ptr %15, align 8, !tbaa !88
  %17 = getelementptr inbounds nuw i8, ptr %16, i64 %12
  %18 = getelementptr inbounds nuw i8, ptr %17, i64 4
  br label %23

19:                                               ; preds = %4
  %20 = getelementptr inbounds nuw i8, ptr %0, i64 48
  %21 = load ptr, ptr %20, align 8, !tbaa !88
  %22 = getelementptr inbounds nuw i8, ptr %21, i64 %12
  br label %23

23:                                               ; preds = %19, %13
  %.pn = phi i64 [ %14, %13 ], [ %10, %19 ]
  %.0 = phi ptr [ %18, %13 ], [ %22, %19 ]
  %.027 = sub i64 %.pn, %12
  %24 = icmp ult i64 %.027, 65520
  br i1 %24, label %57, label %25

25:                                               ; preds = %23
  %26 = getelementptr inbounds nuw i8, ptr %0, i64 84
  %27 = load i32, ptr %26, align 4, !tbaa !91
  %28 = trunc i64 %.027 to i32
  %29 = call i32 @packet_read_with_status(i32 noundef %27, ptr noundef null, ptr noundef null, ptr noundef %.0, i32 noundef %28, ptr noundef nonnull %5, i32 noundef %1) #17
  store i32 %29, ptr %3, align 4, !tbaa !4
  %.not29 = icmp eq i32 %29, 0
  br i1 %.not29, label %40, label %30

30:                                               ; preds = %25
  %31 = load i32, ptr %5, align 4, !tbaa !4
  %32 = load i8, ptr %6, align 4
  %33 = and i8 %32, 4
  %34 = zext nneg i8 %33 to i32
  %35 = add nsw i32 %31, %34
  %36 = sext i32 %35 to i64
  store i64 %36, ptr %2, align 8, !tbaa !81
  %37 = getelementptr inbounds nuw i8, ptr %0, i64 64
  %38 = load i64, ptr %37, align 8, !tbaa !95
  %39 = add i64 %38, %36
  store i64 %39, ptr %37, align 8, !tbaa !95
  br label %40

40:                                               ; preds = %30, %25
  %41 = load i8, ptr %6, align 4
  %42 = and i8 %41, 4
  %.not31 = icmp eq i8 %42, 0
  br i1 %.not31, label %57, label %43

43:                                               ; preds = %40
  switch i32 %29, label %57 [
    i32 0, label %44
    i32 1, label %47
    i32 3, label %51
    i32 2, label %53
    i32 4, label %55
  ]

44:                                               ; preds = %43
  %.not32 = icmp eq i32 %1, 0
  br i1 %.not32, label %45, label %57

45:                                               ; preds = %44
  %46 = call fastcc ptr @_(ptr noundef nonnull @.str.88)
  call void (ptr, ...) @die(ptr noundef %46) #18
  unreachable

47:                                               ; preds = %43
  %48 = getelementptr inbounds i8, ptr %.0, i64 -4
  %49 = load i64, ptr %2, align 8, !tbaa !81
  %50 = trunc i64 %49 to i32
  call void @set_packet_header(ptr noundef nonnull %48, i32 noundef %50) #17
  br label %57

51:                                               ; preds = %43
  %52 = getelementptr inbounds i8, ptr %.0, i64 -4
  store i32 825241648, ptr %52, align 1
  br label %57

53:                                               ; preds = %43
  %54 = getelementptr inbounds i8, ptr %.0, i64 -4
  store i32 808464432, ptr %54, align 1
  br label %57

55:                                               ; preds = %43
  %56 = call fastcc ptr @_(ptr noundef nonnull @.str.91)
  call void (ptr, ...) @die(ptr noundef %56) #18
  unreachable

57:                                               ; preds = %40, %44, %53, %51, %47, %43, %23
  %.028 = phi i32 [ 0, %23 ], [ 1, %43 ], [ 1, %47 ], [ 1, %51 ], [ 1, %53 ], [ 1, %44 ], [ 1, %40 ]
  call void @llvm.lifetime.end.p0(i64 4, ptr nonnull %5) #17
  ret i32 %.028
}